target datalayout = "e-m:e-p270:32:32-p271:32:32-p272:64:64-i64:64-i128:128-f80:128-n8:16:32:64-S128"
target triple = "x86_64-pc-linux-gnu"

%struct.jv = type { i8, i8, i16, i32, %union.anon }
%union.anon = type { ptr }

@.str.155 = private unnamed_addr constant [11 x i8] c"%s (%s) %s\00", align 1
@.str.158 = private unnamed_addr constant [29 x i8] c"cannot be parsed as a number\00", align 1

; Function Attrs: nounwind uwtable
define internal { i64, ptr } @type_error(i64 %0, ptr %1, ptr noundef %2) #0 {
  %4 = alloca %struct.jv, align 8
  %5 = alloca %struct.jv, align 8
  %6 = alloca ptr, align 8
  %7 = alloca [15 x i8], align 1
  %8 = alloca ptr, align 8
  %9 = alloca %struct.jv, align 8
  %10 = getelementptr inbounds nuw { i64, ptr }, ptr %5, i32 0, i32 0
  store i64 %0, ptr %10, align 8
  %11 = getelementptr inbounds nuw { i64, ptr }, ptr %5, i32 0, i32 1
  store ptr %1, ptr %11, align 8
  store ptr %2, ptr %6, align 8, !tbaa !12
  call void @llvm.lifetime.start.p0(i64 15, ptr %7) #10
  call void @llvm.lifetime.start.p0(i64 8, ptr %8) #10
  %12 = getelementptr inbounds nuw { i64, ptr }, ptr %5, i32 0, i32 0
  %13 = load i64, ptr %12, align 8
  %14 = getelementptr inbounds nuw { i64, ptr }, ptr %5, i32 0, i32 1
  %15 = load ptr, ptr %14, align 8
  %16 = call i32 @jv_get_kind(i64 %13, ptr %15)
  %17 = call ptr @jv_kind_name(i32 noundef %16)
  store ptr %17, ptr %8, align 8, !tbaa !12
  %18 = load ptr, ptr %8, align 8, !tbaa !12
  %19 = getelementptr inbounds [15 x i8], ptr %7, i64 0, i64 0
  %20 = getelementptr inbounds nuw { i64, ptr }, ptr %5, i32 0, i32 0
  %21 = load i64, ptr %20, align 8
  %22 = getelementptr inbounds nuw { i64, ptr }, ptr %5, i32 0, i32 1
  %23 = load ptr, ptr %22, align 8
  %24 = call ptr @jv_dump_string_trunc(i64 %21, ptr %23, ptr noundef %19, i64 noundef 15)
  %25 = load ptr, ptr %6, align 8, !tbaa !12
  %26 = call { i64, ptr } (ptr, ...) @jv_string_fmt(ptr noundef @.str.155, ptr noundef %18, ptr noundef %24, ptr noundef %25)
  %27 = getelementptr inbounds nuw { i64, ptr }, ptr %9, i32 0, i32 0
  %28 = extractvalue { i64, ptr } %26, 0
  store i64 %28, ptr %27, align 8
  %29 = getelementptr inbounds nuw { i64, ptr }, ptr %9, i32 0, i32 1
  %30 = extractvalue { i64, ptr } %26, 1
  store ptr %30, ptr %29, align 8
  %31 = getelementptr inbounds nuw { i64, ptr }, ptr %9, i32 0, i32 0
  %32 = load i64, ptr %31, align 8
  %33 = getelementptr inbounds nuw { i64, ptr }, ptr %9, i32 0, i32 1
  %34 = load ptr, ptr %33, align 8
  %35 = call { i64, ptr } @jv_invalid_with_msg(i64 %32, ptr %34)
  %36 = getelementptr inbounds nuw { i64, ptr }, ptr %4, i32 0, i32 0
  %37 = extractvalue { i64, ptr } %35, 0
  store i64 %37, ptr %36, align 8
  %38 = getelementptr inbounds nuw { i64, ptr }, ptr %4, i32 0, i32 1
  %39 = extractvalue { i64, ptr } %35, 1
  store ptr %39, ptr %38, align 8
  call void @llvm.lifetime.end.p0(i64 8, ptr %8) #10
  call void @llvm.lifetime.end.p0(i64 15, ptr %7) #10
  %40 = load { i64, ptr }, ptr %4, align 8
  ret { i64, ptr } %40
}

; Function Attrs: nounwind uwtable
define internal { i64, ptr } @f_tonumber(ptr noundef %0, i64 %1, ptr %2) #0 {
  %4 = alloca %struct.jv, align 8
  %5 = alloca %struct.jv, align 8
  %6 = alloca ptr, align 8
  %7 = alloca ptr, align 8
  %8 = alloca %struct.jv, align 8
  %9 = alloca i32, align 4
  %10 = getelementptr inbounds nuw { i64, ptr }, ptr %5, i32 0, i32 0
  store i64 %1, ptr %10, align 8
  %11 = getelementptr inbounds nuw { i64, ptr }, ptr %5, i32 0, i32 1
  store ptr %2, ptr %11, align 8
  store ptr %0, ptr %6, align 8, !tbaa !25
  %12 = getelementptr inbounds nuw { i64, ptr }, ptr %5, i32 0, i32 0
  %13 = load i64, ptr %12, align 8
  %14 = getelementptr inbounds nuw { i64, ptr }, ptr %5, i32 0, i32 1
  %15 = load ptr, ptr %14, align 8
  %16 = call i32 @jv_get_kind(i64 %13, ptr %15)
  %17 = icmp eq i32 %16, 4
  br i1 %17, label %18, label %19

18:                                               ; preds = %3
  call void @llvm.memcpy.p0.p0.i64(ptr align 8 %4, ptr align 8 %5, i64 16, i1 false), !tbaa.struct !4
  br label %70

19:                                               ; preds = %3
  %20 = getelementptr inbounds nuw { i64, ptr }, ptr %5, i32 0, i32 0
  %21 = load i64, ptr %20, align 8
  %22 = getelementptr inbounds nuw { i64, ptr }, ptr %5, i32 0, i32 1
  %23 = load ptr, ptr %22, align 8
  %24 = call i32 @jv_get_kind(i64 %21, ptr %23)
  %25 = icmp eq i32 %24, 5
  br i1 %25, label %26, label %60

26:                                               ; preds = %19
  call void @llvm.lifetime.start.p0(i64 8, ptr %7) #10
  %27 = getelementptr inbounds nuw { i64, ptr }, ptr %5, i32 0, i32 0
  %28 = load i64, ptr %27, align 8
  %29 = getelementptr inbounds nuw { i64, ptr }, ptr %5, i32 0, i32 1
  %30 = load ptr, ptr %29, align 8
  %31 = call ptr @jv_string_value(i64 %28, ptr %30)
  store ptr %31, ptr %7, align 8, !tbaa !12
  call void @llvm.lifetime.start.p0(i64 16, ptr %8) #10
  %32 = load ptr, ptr %7, align 8, !tbaa !12
  %33 = call { i64, ptr } @jv_number_with_literal(ptr noundef %32)
  %34 = getelementptr inbounds nuw { i64, ptr }, ptr %8, i32 0, i32 0
  %35 = extractvalue { i64, ptr } %33, 0
  store i64 %35, ptr %34, align 8
  %36 = getelementptr inbounds nuw { i64, ptr }, ptr %8, i32 0, i32 1
  %37 = extractvalue { i64, ptr } %33, 1
  store ptr %37, ptr %36, align 8
  %38 = getelementptr inbounds nuw { i64, ptr }, ptr %8, i32 0, i32 0
  %39 = load i64, ptr %38, align 8
  %40 = getelementptr inbounds nuw { i64, ptr }, ptr %8, i32 0, i32 1
  %41 = load ptr, ptr %40, align 8
  %42 = call i32 @jv_get_kind(i64 %39, ptr %41)
  %43 = icmp eq i32 %42, 0
  br i1 %43, label %44, label %54

44:                                               ; preds = %26
  %45 = getelementptr inbounds nuw { i64, ptr }, ptr %5, i32 0, i32 0
  %46 = load i64, ptr %45, align 8
  %47 = getelementptr inbounds nuw { i64, ptr }, ptr %5, i32 0, i32 1
  %48 = load ptr, ptr %47, align 8
  %49 = call { i64, ptr } @type_error(i64 %46, ptr %48, ptr noundef @.str.158)
  %50 = getelementptr inbounds nuw { i64, ptr }, ptr %4, i32 0, i32 0
  %51 = extractvalue { i64, ptr } %49, 0
  store i64 %51, ptr %50, align 8
  %52 = getelementptr inbounds nuw { i64, ptr }, ptr %4, i32 0, i32 1
  %53 = extractvalue { i64, ptr } %49, 1
  store ptr %53, ptr %52, align 8
  store i32 1, ptr %9, align 4
  br label %59

54:                                               ; preds = %26
  %55 = getelementptr inbounds nuw { i64, ptr }, ptr %5, i32 0, i32 0
  %56 = load i64, ptr %55, align 8
  %57 = getelementptr inbounds nuw { i64, ptr }, ptr %5, i32 0, i32 1
  %58 = load ptr, ptr %57, align 8
  call void @jv_free(i64 %56, ptr %58)
  call void @llvm.memcpy.p0.p0.i64(ptr align 8 %4, ptr align 8 %8, i64 16, i1 false), !tbaa.struct !4
  store i32 1, ptr %9, align 4
  br label %59

59:                                               ; preds = %54, %44
  call void @llvm.lifetime.end.p0(i64 16, ptr %8) #10
  call void @llvm.lifetime.end.p0(i64 8, ptr %7) #10
  br label %70

60:                                               ; preds = %19
  %61 = getelementptr inbounds nuw { i64, ptr }, ptr %5, i32 0, i32 0
  %62 = load i64, ptr %61, align 8
  %63 = getelementptr inbounds nuw { i64, ptr }, ptr %5, i32 0, i32 1
  %64 = load ptr, ptr %63, align 8
  %65 = call { i64, ptr } @type_error(i64 %62, ptr %64, ptr noundef @.str.158)
  %66 = getelementptr inbounds nuw { i64, ptr }, ptr %4, i32 0, i32 0
  %67 = extractvalue { i64, ptr } %65, 0
  store i64 %67, ptr %66, align 8
  %68 = getelementptr inbounds nuw { i64, ptr }, ptr %4, i32 0, i32 1
  %69 = extractvalue { i64, ptr } %65, 1
  store ptr %69, ptr %68, align 8
  br label %70

70:                                               ; preds = %60, %59, %18
  %71 = load { i64, ptr }, ptr %4, align 8
  ret { i64, ptr } %71
}