; Function Attrs: nounwind uwtable
define internal { i64, ptr } @f_tonumber(ptr readnone captures(none) %0, i64 %1, ptr %2) #0 {
  %4 = alloca [15 x i8], align 1
  %5 = alloca [15 x i8], align 1
  %6 = tail call i32 @jv_get_kind(i64 %1, ptr %2) #14
  %7 = icmp eq i32 %6, 4
  br i1 %7, label %8, label %11

8:                                                ; preds = %3
  %9 = insertvalue { i64, ptr } poison, i64 %1, 0
  %10 = insertvalue { i64, ptr } %9, ptr %2, 1
  br label %38

11:                                               ; preds = %3
  %12 = tail call i32 @jv_get_kind(i64 %1, ptr %2) #14
  %13 = icmp eq i32 %12, 5
  br i1 %13, label %14, label %30

14:                                               ; preds = %11
  %15 = tail call ptr @jv_string_value(i64 %1, ptr %2) #14
  %16 = tail call { i64, ptr } @jv_number_with_literal(ptr noundef %15) #14
  %17 = extractvalue { i64, ptr } %16, 0
  %18 = extractvalue { i64, ptr } %16, 1
  %19 = tail call i32 @jv_get_kind(i64 %17, ptr %18) #14
  %20 = icmp eq i32 %19, 0
  br i1 %20, label %21, label %29

21:                                               ; preds = %14
  call void @llvm.lifetime.start.p0(i64 15, ptr nonnull %5) #14
  %22 = tail call i32 @jv_get_kind(i64 %1, ptr %2) #14
  %23 = tail call ptr @jv_kind_name(i32 noundef %22) #14
  %24 = call ptr @jv_dump_string_trunc(i64 %1, ptr %2, ptr noundef nonnull %5, i64 noundef 15) #14
  %25 = call { i64, ptr } (ptr, ...) @jv_string_fmt(ptr noundef nonnull @.str.155, ptr noundef %23, ptr noundef %24, ptr noundef nonnull @.str.158) #14
  %26 = extractvalue { i64, ptr } %25, 0
  %27 = extractvalue { i64, ptr } %25, 1
  %28 = call { i64, ptr } @jv_invalid_with_msg(i64 %26, ptr %27) #14
  call void @llvm.lifetime.end.p0(i64 15, ptr nonnull %5) #14
  br label %38

29:                                               ; preds = %14
  tail call void @jv_free(i64 %1, ptr %2) #14
  br label %38

30:                                               ; preds = %11
  call void @llvm.lifetime.start.p0(i64 15, ptr nonnull %4) #14
  %31 = tail call i32 @jv_get_kind(i64 %1, ptr %2) #14
  %32 = tail call ptr @jv_kind_name(i32 noundef %31) #14
  %33 = call ptr @jv_dump_string_trunc(i64 %1, ptr %2, ptr noundef nonnull %4, i64 noundef 15) #14
  %34 = call { i64, ptr } (ptr, ...) @jv_string_fmt(ptr noundef nonnull @.str.155, ptr noundef %32, ptr noundef %33, ptr noundef nonnull @.str.158) #14
  %35 = extractvalue { i64, ptr } %34, 0
  %36 = extractvalue { i64, ptr } %34, 1
  %37 = call { i64, ptr } @jv_invalid_with_msg(i64 %35, ptr %36) #14
  call void @llvm.lifetime.end.p0(i64 15, ptr nonnull %4) #14
  br label %38

38:                                               ; preds = %21, %29, %30, %8
  %.fca.1.insert.merged = phi { i64, ptr } [ %10, %8 ], [ %37, %30 ], [ %28, %21 ], [ %16, %29 ]
  ret { i64, ptr } %.fca.1.insert.merged
}